; ModuleID = 'source-C-CXX/60/564.c'
source_filename = "source-C-CXX/60/564.c"
target datalayout = "e-m:e-p270:32:32-p271:32:32-p272:64:64-i64:64-f80:128-n8:16:32:64-S128"
target triple = "x86_64-pc-linux-gnu"

@.str = private unnamed_addr constant [3 x i8] c"%d\00", align 1
@.str.1 = private unnamed_addr constant [4 x i8] c"%d\0A\00", align 1

; Function Attrs: nofree nosync nounwind readnone sspstrong uwtable
define dso_local i32 @p(i32 %0) local_unnamed_addr #0 {
  %2 = alloca [22 x i32], align 16
  %3 = bitcast [22 x i32]* %2 to i8*
  call void @llvm.lifetime.start.p0i8(i64 88, i8* nonnull %3) #4
  %4 = getelementptr inbounds [22 x i32], [22 x i32]* %2, i64 0, i64 1
  store i32 1, i32* %4, align 4, !tbaa !5
  %5 = getelementptr inbounds [22 x i32], [22 x i32]* %2, i64 0, i64 2
  store i32 1, i32* %5, align 8, !tbaa !5
  %6 = icmp slt i32 %0, 3
  br i1 %6, label %66, label %7

7:                                                ; preds = %1
  %8 = add nuw i32 %0, 1
  %9 = zext i32 %8 to i64
  %10 = getelementptr inbounds [22 x i32], [22 x i32]* %2, i64 0, i64 3
  store i32 2, i32* %10, align 4, !tbaa !5
  %11 = icmp eq i32 %8, 4
  br i1 %11, label %66, label %12, !llvm.loop !9

12:                                               ; preds = %7
  %13 = add nsw i64 %9, -5
  %14 = and i64 %9, 3
  %15 = icmp ult i64 %13, 3
  br i1 %15, label %48, label %16

16:                                               ; preds = %12
  %17 = add nsw i64 %9, -4
  %18 = and i64 %17, -4
  br label %19

19:                                               ; preds = %19, %16
  %20 = phi i64 [ 4, %16 ], [ %45, %19 ]
  %21 = phi i32 [ 2, %16 ], [ %43, %19 ]
  %22 = phi i64 [ 3, %16 ], [ %40, %19 ]
  %23 = phi i64 [ %18, %16 ], [ %46, %19 ]
  %24 = add nsw i64 %22, -1
  %25 = getelementptr inbounds [22 x i32], [22 x i32]* %2, i64 0, i64 %24
  %26 = load i32, i32* %25, align 8, !tbaa !5
  %27 = add nsw i32 %26, %21
  %28 = getelementptr inbounds [22 x i32], [22 x i32]* %2, i64 0, i64 %20
  store i32 %27, i32* %28, align 16, !tbaa !5
  %29 = or i64 %20, 1
  %30 = add nsw i64 %20, -1
  %31 = getelementptr inbounds [22 x i32], [22 x i32]* %2, i64 0, i64 %30
  %32 = load i32, i32* %31, align 4, !tbaa !5
  %33 = add nsw i32 %32, %27
  %34 = getelementptr inbounds [22 x i32], [22 x i32]* %2, i64 0, i64 %29
  store i32 %33, i32* %34, align 4, !tbaa !5
  %35 = or i64 %20, 2
  %36 = getelementptr inbounds [22 x i32], [22 x i32]* %2, i64 0, i64 %20
  %37 = load i32, i32* %36, align 16, !tbaa !5
  %38 = add nsw i32 %37, %33
  %39 = getelementptr inbounds [22 x i32], [22 x i32]* %2, i64 0, i64 %35
  store i32 %38, i32* %39, align 8, !tbaa !5
  %40 = or i64 %20, 3
  %41 = getelementptr inbounds [22 x i32], [22 x i32]* %2, i64 0, i64 %29
  %42 = load i32, i32* %41, align 4, !tbaa !5
  %43 = add nsw i32 %42, %38
  %44 = getelementptr inbounds [22 x i32], [22 x i32]* %2, i64 0, i64 %40
  store i32 %43, i32* %44, align 4, !tbaa !5
  %45 = add nuw nsw i64 %20, 4
  %46 = add i64 %23, -4
  %47 = icmp eq i64 %46, 0
  br i1 %47, label %48, label %19, !llvm.loop !9

48:                                               ; preds = %19, %12
  %49 = phi i64 [ 4, %12 ], [ %45, %19 ]
  %50 = phi i32 [ 2, %12 ], [ %43, %19 ]
  %51 = phi i64 [ 3, %12 ], [ %40, %19 ]
  %52 = icmp eq i64 %14, 0
  br i1 %52, label %66, label %53

53:                                               ; preds = %48, %53
  %54 = phi i64 [ %63, %53 ], [ %49, %48 ]
  %55 = phi i32 [ %61, %53 ], [ %50, %48 ]
  %56 = phi i64 [ %54, %53 ], [ %51, %48 ]
  %57 = phi i64 [ %64, %53 ], [ %14, %48 ]
  %58 = add nsw i64 %56, -1
  %59 = getelementptr inbounds [22 x i32], [22 x i32]* %2, i64 0, i64 %58
  %60 = load i32, i32* %59, align 4, !tbaa !5
  %61 = add nsw i32 %60, %55
  %62 = getelementptr inbounds [22 x i32], [22 x i32]* %2, i64 0, i64 %54
  store i32 %61, i32* %62, align 4, !tbaa !5
  %63 = add nuw nsw i64 %54, 1
  %64 = add i64 %57, -1
  %65 = icmp eq i64 %64, 0
  br i1 %65, label %66, label %53, !llvm.loop !11

66:                                               ; preds = %48, %53, %7, %1
  %67 = sext i32 %0 to i64
  %68 = getelementptr inbounds [22 x i32], [22 x i32]* %2, i64 0, i64 %67
  %69 = load i32, i32* %68, align 4, !tbaa !5
  call void @llvm.lifetime.end.p0i8(i64 88, i8* nonnull %3) #4
  ret i32 %69
}

; Function Attrs: argmemonly mustprogress nofree nosync nounwind willreturn
declare void @llvm.lifetime.start.p0i8(i64 immarg, i8* nocapture) #1

; Function Attrs: argmemonly mustprogress nofree nosync nounwind willreturn
declare void @llvm.lifetime.end.p0i8(i64 immarg, i8* nocapture) #1

; Function Attrs: nofree nounwind sspstrong uwtable
define dso_local i32 @main() local_unnamed_addr #2 {
  %1 = alloca [22 x i32], align 16
  %2 = alloca i32, align 4
  %3 = alloca i32, align 4
  %4 = bitcast i32* %2 to i8*
  call void @llvm.lifetime.start.p0i8(i64 4, i8* nonnull %4) #4
  %5 = bitcast i32* %3 to i8*
  call void @llvm.lifetime.start.p0i8(i64 4, i8* nonnull %5) #4
  %6 = call i32 (i8*, ...) @__isoc99_scanf(i8* getelementptr inbounds ([3 x i8], [3 x i8]* @.str, i64 0, i64 0), i32* nonnull %3)
  %7 = bitcast [22 x i32]* %1 to i8*
  %8 = getelementptr inbounds [22 x i32], [22 x i32]* %1, i64 0, i64 1
  %9 = getelementptr inbounds [22 x i32], [22 x i32]* %1, i64 0, i64 2
  %10 = getelementptr inbounds [22 x i32], [22 x i32]* %1, i64 0, i64 3
  %11 = load i32, i32* %3, align 4, !tbaa !5
  %12 = icmp sgt i32 %11, 0
  br i1 %12, label %13, label %84

13:                                               ; preds = %0, %76
  %14 = phi i32 [ %81, %76 ], [ 0, %0 ]
  %15 = call i32 (i8*, ...) @__isoc99_scanf(i8* getelementptr inbounds ([3 x i8], [3 x i8]* @.str, i64 0, i64 0), i32* nonnull %2)
  %16 = load i32, i32* %2, align 4, !tbaa !5
  call void @llvm.lifetime.start.p0i8(i64 88, i8* nonnull %7) #4
  store i32 1, i32* %8, align 4, !tbaa !5
  store i32 1, i32* %9, align 8, !tbaa !5
  %17 = icmp slt i32 %16, 3
  br i1 %17, label %76, label %18

18:                                               ; preds = %13
  %19 = add nuw i32 %16, 1
  %20 = zext i32 %19 to i64
  store i32 2, i32* %10, align 4, !tbaa !5
  %21 = icmp eq i32 %19, 4
  br i1 %21, label %76, label %22, !llvm.loop !9

22:                                               ; preds = %18
  %23 = add nsw i64 %20, -5
  %24 = and i64 %20, 3
  %25 = icmp ult i64 %23, 3
  br i1 %25, label %58, label %26

26:                                               ; preds = %22
  %27 = add nsw i64 %20, -4
  %28 = and i64 %27, -4
  br label %29

29:                                               ; preds = %29, %26
  %30 = phi i64 [ 4, %26 ], [ %55, %29 ]
  %31 = phi i32 [ 2, %26 ], [ %53, %29 ]
  %32 = phi i64 [ 3, %26 ], [ %50, %29 ]
  %33 = phi i64 [ %28, %26 ], [ %56, %29 ]
  %34 = add nsw i64 %32, -1
  %35 = getelementptr inbounds [22 x i32], [22 x i32]* %1, i64 0, i64 %34
  %36 = load i32, i32* %35, align 8, !tbaa !5
  %37 = add nsw i32 %31, %36
  %38 = getelementptr inbounds [22 x i32], [22 x i32]* %1, i64 0, i64 %30
  store i32 %37, i32* %38, align 16, !tbaa !5
  %39 = or i64 %30, 1
  %40 = add nsw i64 %30, -1
  %41 = getelementptr inbounds [22 x i32], [22 x i32]* %1, i64 0, i64 %40
  %42 = load i32, i32* %41, align 4, !tbaa !5
  %43 = add nsw i32 %37, %42
  %44 = getelementptr inbounds [22 x i32], [22 x i32]* %1, i64 0, i64 %39
  store i32 %43, i32* %44, align 4, !tbaa !5
  %45 = or i64 %30, 2
  %46 = getelementptr inbounds [22 x i32], [22 x i32]* %1, i64 0, i64 %30
  %47 = load i32, i32* %46, align 16, !tbaa !5
  %48 = add nsw i32 %43, %47
  %49 = getelementptr inbounds [22 x i32], [22 x i32]* %1, i64 0, i64 %45
  store i32 %48, i32* %49, align 8, !tbaa !5
  %50 = or i64 %30, 3
  %51 = getelementptr inbounds [22 x i32], [22 x i32]* %1, i64 0, i64 %39
  %52 = load i32, i32* %51, align 4, !tbaa !5
  %53 = add nsw i32 %48, %52
  %54 = getelementptr inbounds [22 x i32], [22 x i32]* %1, i64 0, i64 %50
  store i32 %53, i32* %54, align 4, !tbaa !5
  %55 = add nuw nsw i64 %30, 4
  %56 = add i64 %33, -4
  %57 = icmp eq i64 %56, 0
  br i1 %57, label %58, label %29, !llvm.loop !9

58:                                               ; preds = %29, %22
  %59 = phi i64 [ 4, %22 ], [ %55, %29 ]
  %60 = phi i32 [ 2, %22 ], [ %53, %29 ]
  %61 = phi i64 [ 3, %22 ], [ %50, %29 ]
  %62 = icmp eq i64 %24, 0
  br i1 %62, label %76, label %63

63:                                               ; preds = %58, %63
  %64 = phi i64 [ %73, %63 ], [ %59, %58 ]
  %65 = phi i32 [ %71, %63 ], [ %60, %58 ]
  %66 = phi i64 [ %64, %63 ], [ %61, %58 ]
  %67 = phi i64 [ %74, %63 ], [ %24, %58 ]
  %68 = add nsw i64 %66, -1
  %69 = getelementptr inbounds [22 x i32], [22 x i32]* %1, i64 0, i64 %68
  %70 = load i32, i32* %69, align 4, !tbaa !5
  %71 = add nsw i32 %65, %70
  %72 = getelementptr inbounds [22 x i32], [22 x i32]* %1, i64 0, i64 %64
  store i32 %71, i32* %72, align 4, !tbaa !5
  %73 = add nuw nsw i64 %64, 1
  %74 = add i64 %67, -1
  %75 = icmp eq i64 %74, 0
  br i1 %75, label %76, label %63, !llvm.loop !13

76:                                               ; preds = %58, %63, %18, %13
  %77 = sext i32 %16 to i64
  %78 = getelementptr inbounds [22 x i32], [22 x i32]* %1, i64 0, i64 %77
  %79 = load i32, i32* %78, align 4, !tbaa !5
  call void @llvm.lifetime.end.p0i8(i64 88, i8* nonnull %7) #4
  %80 = call i32 (i8*, ...) @printf(i8* nonnull dereferenceable(1) getelementptr inbounds ([4 x i8], [4 x i8]* @.str.1, i64 0, i64 0), i32 %79)
  %81 = add nuw nsw i32 %14, 1
  %82 = load i32, i32* %3, align 4, !tbaa !5
  %83 = icmp slt i32 %81, %82
  br i1 %83, label %13, label %84, !llvm.loop !14

84:                                               ; preds = %76, %0
  call void @llvm.lifetime.end.p0i8(i64 4, i8* nonnull %5) #4
  call void @llvm.lifetime.end.p0i8(i64 4, i8* nonnull %4) #4
  ret i32 0
}

; Function Attrs: nofree nounwind
declare noundef i32 @__isoc99_scanf(i8* nocapture noundef readonly, ...) local_unnamed_addr #3

; Function Attrs: nofree nounwind
declare noundef i32 @printf(i8* nocapture noundef readonly, ...) local_unnamed_addr #3


!llvm.module.flags = !{!0, !1, !2, !3}
!llvm.ident = !{!4}

!0 = !{i32 1, !"wchar_size", i32 4}
!1 = !{i32 7, !"PIC Level", i32 2}
!2 = !{i32 7, !"PIE Level", i32 2}
!3 = !{i32 7, !"uwtable", i32 1}
!4 = !{!"clang version 13.0.0"}
!5 = !{!6, !6, i64 0}
!6 = !{!"int", !7, i64 0}
!7 = !{!"omnipotent char", !8, i64 0}
!8 = !{!"Simple C/C++ TBAA"}
!9 = distinct !{!9, !10}
!10 = !{!"llvm.loop.mustprogress"}
!11 = distinct !{!11, !12}
!12 = !{!"llvm.loop.unroll.disable"}
!13 = distinct !{!13, !12}
!14 = distinct !{!14, !10}
